target datalayout = "e-m:e-p270:32:32-p271:32:32-p272:64:64-i64:64-i128:128-f80:128-n8:16:32:64-S128"
target triple = "x86_64-pc-linux-gnu"

%struct.ZSTD_compressionParameters = type { i32, i32, i32, i32, i32, i32, i32 }
%struct.ldmParams_t = type { i32, i32, i32, i32, i32, i32 }

; Function Attrs: nounwind uwtable
define dso_local void @ZSTD_ldm_adjustParameters(ptr noundef %0, ptr noundef %1) #0 {
  %3 = alloca ptr, align 8
  %4 = alloca ptr, align 8
  store ptr %0, ptr %3, align 8
  store ptr %1, ptr %4, align 8
  %5 = load ptr, ptr %4, align 8
  %6 = getelementptr inbounds %struct.ZSTD_compressionParameters, ptr %5, i32 0, i32 0
  %7 = load i32, ptr %6, align 4
  %8 = load ptr, ptr %3, align 8
  %9 = getelementptr inbounds %struct.ldmParams_t, ptr %8, i32 0, i32 5
  store i32 %7, ptr %9, align 4
  %10 = load ptr, ptr %3, align 8
  %11 = getelementptr inbounds %struct.ldmParams_t, ptr %10, i32 0, i32 2
  %12 = load i32, ptr %11, align 4
  %13 = icmp ne i32 %12, 0
  br i1 %13, label %17, label %14

14:                                               ; preds = %2
  %15 = load ptr, ptr %3, align 8
  %16 = getelementptr inbounds %struct.ldmParams_t, ptr %15, i32 0, i32 2
  store i32 3, ptr %16, align 4
  br label %17

17:                                               ; preds = %14, %2
  %18 = load ptr, ptr %3, align 8
  %19 = getelementptr inbounds %struct.ldmParams_t, ptr %18, i32 0, i32 3
  %20 = load i32, ptr %19, align 4
  %21 = icmp ne i32 %20, 0
  br i1 %21, label %25, label %22

22:                                               ; preds = %17
  %23 = load ptr, ptr %3, align 8
  %24 = getelementptr inbounds %struct.ldmParams_t, ptr %23, i32 0, i32 3
  store i32 64, ptr %24, align 4
  br label %25

25:                                               ; preds = %22, %17
  %26 = load ptr, ptr %3, align 8
  %27 = getelementptr inbounds %struct.ldmParams_t, ptr %26, i32 0, i32 1
  %28 = load i32, ptr %27, align 4
  %29 = icmp eq i32 %28, 0
  br i1 %29, label %30, label %46

30:                                               ; preds = %25
  %31 = load ptr, ptr %3, align 8
  %32 = getelementptr inbounds %struct.ldmParams_t, ptr %31, i32 0, i32 5
  %33 = load i32, ptr %32, align 4
  %34 = sub i32 %33, 7
  %35 = icmp ugt i32 6, %34
  br i1 %35, label %36, label %37

36:                                               ; preds = %30
  br label %42

37:                                               ; preds = %30
  %38 = load ptr, ptr %3, align 8
  %39 = getelementptr inbounds %struct.ldmParams_t, ptr %38, i32 0, i32 5
  %40 = load i32, ptr %39, align 4
  %41 = sub i32 %40, 7
  br label %42

42:                                               ; preds = %37, %36
  %43 = phi i32 [ 6, %36 ], [ %41, %37 ]
  %44 = load ptr, ptr %3, align 8
  %45 = getelementptr inbounds %struct.ldmParams_t, ptr %44, i32 0, i32 1
  store i32 %43, ptr %45, align 4
  br label %46

46:                                               ; preds = %42, %25
  %47 = load ptr, ptr %3, align 8
  %48 = getelementptr inbounds %struct.ldmParams_t, ptr %47, i32 0, i32 4
  %49 = load i32, ptr %48, align 4
  %50 = icmp eq i32 %49, 0
  br i1 %50, label %51, label %72

51:                                               ; preds = %46
  %52 = load ptr, ptr %3, align 8
  %53 = getelementptr inbounds %struct.ldmParams_t, ptr %52, i32 0, i32 5
  %54 = load i32, ptr %53, align 4
  %55 = load ptr, ptr %3, align 8
  %56 = getelementptr inbounds %struct.ldmParams_t, ptr %55, i32 0, i32 1
  %57 = load i32, ptr %56, align 4
  %58 = icmp ult i32 %54, %57
  br i1 %58, label %59, label %60

59:                                               ; preds = %51
  br label %68

60:                                               ; preds = %51
  %61 = load ptr, ptr %3, align 8
  %62 = getelementptr inbounds %struct.ldmParams_t, ptr %61, i32 0, i32 5
  %63 = load i32, ptr %62, align 4
  %64 = load ptr, ptr %3, align 8
  %65 = getelementptr inbounds %struct.ldmParams_t, ptr %64, i32 0, i32 1
  %66 = load i32, ptr %65, align 4
  %67 = sub i32 %63, %66
  br label %68

68:                                               ; preds = %60, %59
  %69 = phi i32 [ 0, %59 ], [ %67, %60 ]
  %70 = load ptr, ptr %3, align 8
  %71 = getelementptr inbounds %struct.ldmParams_t, ptr %70, i32 0, i32 4
  store i32 %69, ptr %71, align 4
  br label %72

72:                                               ; preds = %68, %46
  %73 = load ptr, ptr %3, align 8
  %74 = getelementptr inbounds %struct.ldmParams_t, ptr %73, i32 0, i32 2
  %75 = load i32, ptr %74, align 4
  %76 = load ptr, ptr %3, align 8
  %77 = getelementptr inbounds %struct.ldmParams_t, ptr %76, i32 0, i32 1
  %78 = load i32, ptr %77, align 4
  %79 = icmp ult i32 %75, %78
  br i1 %79, label %80, label %84

80:                                               ; preds = %72
  %81 = load ptr, ptr %3, align 8
  %82 = getelementptr inbounds %struct.ldmParams_t, ptr %81, i32 0, i32 2
  %83 = load i32, ptr %82, align 4
  br label %88

84:                                               ; preds = %72
  %85 = load ptr, ptr %3, align 8
  %86 = getelementptr inbounds %struct.ldmParams_t, ptr %85, i32 0, i32 1
  %87 = load i32, ptr %86, align 4
  br label %88

88:                                               ; preds = %84, %80
  %89 = phi i32 [ %83, %80 ], [ %87, %84 ]
  %90 = load ptr, ptr %3, align 8
  %91 = getelementptr inbounds %struct.ldmParams_t, ptr %90, i32 0, i32 2
  store i32 %89, ptr %91, align 4
  ret void
}